target datalayout = "e-m:e-p270:32:32-p271:32:32-p272:64:64-i64:64-i128:128-f80:128-n8:16:32:64-S128"
target triple = "x86_64-pc-linux-gnu"

%struct.Proto = type { ptr, i8, i8, i8, i8, i8, i32, i32, i32, i32, i32, i32, i32, i32, i32, ptr, ptr, ptr, ptr, ptr, ptr, ptr, ptr, ptr }
%struct.TValue = type { %union.Value, i8 }
%union.Value = type { ptr }
%struct.TString = type { ptr, i8, i8, i8, i8, i32, %union.anon.4, ptr, ptr, ptr }
%union.anon.4 = type { i64 }
%struct.Upvaldesc = type { ptr, i8, i8, i8 }

@.str.18 = private unnamed_addr constant [2 x i8] c"?\00", align 1
@.str.19 = private unnamed_addr constant [14 x i8] c"integer index\00", align 1
@.str.20 = private unnamed_addr constant [6 x i8] c"field\00", align 1
@.str.21 = private unnamed_addr constant [7 x i8] c"method\00", align 1
@.str.23 = private unnamed_addr constant [9 x i8] c"constant\00", align 1
@.str.24 = private unnamed_addr constant [5 x i8] c"_ENV\00", align 1
@.str.25 = private unnamed_addr constant [7 x i8] c"global\00", align 1

; Function Attrs: nounwind uwtable
define internal ptr @upvalname(ptr noundef %0, i32 noundef %1) #0 {
  %3 = alloca ptr, align 8
  %4 = alloca ptr, align 8
  %5 = alloca i32, align 4
  %6 = alloca ptr, align 8
  %7 = alloca i32, align 4
  store ptr %0, ptr %4, align 8, !tbaa !4
  store i32 %1, ptr %5, align 4, !tbaa !9
  call void @llvm.lifetime.start.p0(i64 8, ptr %6) #8
  %8 = load ptr, ptr %4, align 8, !tbaa !4
  %9 = getelementptr inbounds nuw %struct.Proto, ptr %8, i32 0, i32 18
  %10 = load ptr, ptr %9, align 8, !tbaa !114
  %11 = load i32, ptr %5, align 4, !tbaa !9
  %12 = sext i32 %11 to i64
  %13 = getelementptr inbounds %struct.Upvaldesc, ptr %10, i64 %12
  %14 = getelementptr inbounds nuw %struct.Upvaldesc, ptr %13, i32 0, i32 0
  %15 = load ptr, ptr %14, align 8, !tbaa !115
  store ptr %15, ptr %6, align 8, !tbaa !95
  %16 = load ptr, ptr %6, align 8, !tbaa !95
  %17 = icmp eq ptr %16, null
  br i1 %17, label %18, label %19

18:                                               ; preds = %2
  store ptr @.str.18, ptr %3, align 8
  store i32 1, ptr %7, align 4
  br label %34

19:                                               ; preds = %2
  %20 = load ptr, ptr %6, align 8, !tbaa !95
  %21 = getelementptr inbounds nuw %struct.TString, ptr %20, i32 0, i32 4
  %22 = load i8, ptr %21, align 1, !tbaa !96
  %23 = sext i8 %22 to i32
  %24 = icmp sge i32 %23, 0
  br i1 %24, label %25, label %28

25:                                               ; preds = %19
  %26 = load ptr, ptr %6, align 8, !tbaa !95
  %27 = getelementptr inbounds nuw %struct.TString, ptr %26, i32 0, i32 7
  br label %32

28:                                               ; preds = %19
  %29 = load ptr, ptr %6, align 8, !tbaa !95
  %30 = getelementptr inbounds nuw %struct.TString, ptr %29, i32 0, i32 7
  %31 = load ptr, ptr %30, align 8, !tbaa !99
  br label %32

32:                                               ; preds = %28, %25
  %33 = phi ptr [ %27, %25 ], [ %31, %28 ]
  store ptr %33, ptr %3, align 8
  store i32 1, ptr %7, align 4
  br label %34

34:                                               ; preds = %32, %18
  call void @llvm.lifetime.end.p0(i64 8, ptr %6) #8
  %35 = load ptr, ptr %3, align 8
  ret ptr %35
}

; Function Attrs: nounwind uwtable
define internal void @rname(ptr noundef %0, i32 noundef %1, i32 noundef %2, ptr noundef %3) #0 {
  %5 = alloca ptr, align 8
  %6 = alloca i32, align 4
  %7 = alloca i32, align 4
  %8 = alloca ptr, align 8
  %9 = alloca ptr, align 8
  store ptr %0, ptr %5, align 8, !tbaa !4
  store i32 %1, ptr %6, align 4, !tbaa !9
  store i32 %2, ptr %7, align 4, !tbaa !9
  store ptr %3, ptr %8, align 8, !tbaa !86
  call void @llvm.lifetime.start.p0(i64 8, ptr %9) #8
  %10 = load ptr, ptr %5, align 8, !tbaa !4
  %11 = load i32, ptr %7, align 4, !tbaa !9
  %12 = load ptr, ptr %8, align 8, !tbaa !86
  %13 = call ptr @basicgetobjname(ptr noundef %10, ptr noundef %6, i32 noundef %11, ptr noundef %12)
  store ptr %13, ptr %9, align 8, !tbaa !58
  %14 = load ptr, ptr %9, align 8, !tbaa !58
  %15 = icmp ne ptr %14, null
  br i1 %15, label %16, label %21

16:                                               ; preds = %4
  %17 = load ptr, ptr %9, align 8, !tbaa !58
  %18 = load i8, ptr %17, align 1, !tbaa !22
  %19 = sext i8 %18 to i32
  %20 = icmp eq i32 %19, 99
  br i1 %20, label %23, label %21

21:                                               ; preds = %16, %4
  %22 = load ptr, ptr %8, align 8, !tbaa !86
  store ptr @.str.18, ptr %22, align 8, !tbaa !58
  br label %23

23:                                               ; preds = %21, %16
  call void @llvm.lifetime.end.p0(i64 8, ptr %9) #8
  ret void
}

; Function Attrs: nounwind uwtable
define internal ptr @isEnv(ptr noundef %0, i32 noundef %1, i32 noundef %2, i32 noundef %3) #0 {
  %5 = alloca ptr, align 8
  %6 = alloca i32, align 4
  %7 = alloca i32, align 4
  %8 = alloca i32, align 4
  %9 = alloca i32, align 4
  %10 = alloca ptr, align 8
  store ptr %0, ptr %5, align 8, !tbaa !4
  store i32 %1, ptr %6, align 4, !tbaa !9
  store i32 %2, ptr %7, align 4, !tbaa !9
  store i32 %3, ptr %8, align 4, !tbaa !9
  call void @llvm.lifetime.start.p0(i64 4, ptr %9) #8
  %11 = load i32, ptr %7, align 4, !tbaa !9
  %12 = lshr i32 %11, 16
  %13 = and i32 %12, 255
  store i32 %13, ptr %9, align 4, !tbaa !9
  call void @llvm.lifetime.start.p0(i64 8, ptr %10) #8
  %14 = load i32, ptr %8, align 4, !tbaa !9
  %15 = icmp ne i32 %14, 0
  br i1 %15, label %16, label %20

16:                                               ; preds = %4
  %17 = load ptr, ptr %5, align 8, !tbaa !4
  %18 = load i32, ptr %9, align 4, !tbaa !9
  %19 = call ptr @upvalname(ptr noundef %17, i32 noundef %18)
  store ptr %19, ptr %10, align 8, !tbaa !58
  br label %24

20:                                               ; preds = %4
  %21 = load ptr, ptr %5, align 8, !tbaa !4
  %22 = load i32, ptr %9, align 4, !tbaa !9
  %23 = call ptr @basicgetobjname(ptr noundef %21, ptr noundef %6, i32 noundef %22, ptr noundef %10)
  br label %24

24:                                               ; preds = %20, %16
  %25 = load ptr, ptr %10, align 8, !tbaa !58
  %26 = icmp ne ptr %25, null
  br i1 %26, label %27, label %31

27:                                               ; preds = %24
  %28 = load ptr, ptr %10, align 8, !tbaa !58
  %29 = call i32 @strcmp(ptr noundef %28, ptr noundef @.str.24) #9
  %30 = icmp eq i32 %29, 0
  br label %31

31:                                               ; preds = %27, %24
  %32 = phi i1 [ false, %24 ], [ %30, %27 ]
  %33 = select i1 %32, ptr @.str.25, ptr @.str.20
  call void @llvm.lifetime.end.p0(i64 8, ptr %10) #8
  call void @llvm.lifetime.end.p0(i64 4, ptr %9) #8
  ret ptr %33
}

; Function Attrs: nounwind uwtable
define internal ptr @kname(ptr noundef %0, i32 noundef %1, ptr noundef %2) #0 {
  %4 = alloca ptr, align 8
  %5 = alloca ptr, align 8
  %6 = alloca i32, align 4
  %7 = alloca ptr, align 8
  %8 = alloca ptr, align 8
  %9 = alloca i32, align 4
  store ptr %0, ptr %5, align 8, !tbaa !4
  store i32 %1, ptr %6, align 4, !tbaa !9
  store ptr %2, ptr %7, align 8, !tbaa !86
  call void @llvm.lifetime.start.p0(i64 8, ptr %8) #8
  %10 = load ptr, ptr %5, align 8, !tbaa !4
  %11 = getelementptr inbounds nuw %struct.Proto, ptr %10, i32 0, i32 15
  %12 = load ptr, ptr %11, align 8, !tbaa !117
  %13 = load i32, ptr %6, align 4, !tbaa !9
  %14 = sext i32 %13 to i64
  %15 = getelementptr inbounds %struct.TValue, ptr %12, i64 %14
  store ptr %15, ptr %8, align 8, !tbaa !64
  %16 = load ptr, ptr %8, align 8, !tbaa !64
  %17 = getelementptr inbounds nuw %struct.TValue, ptr %16, i32 0, i32 1
  %18 = load i8, ptr %17, align 8, !tbaa !66
  %19 = zext i8 %18 to i32
  %20 = and i32 %19, 15
  %21 = icmp eq i32 %20, 4
  br i1 %21, label %22, label %44

22:                                               ; preds = %3
  %23 = load ptr, ptr %8, align 8, !tbaa !64
  %24 = getelementptr inbounds nuw %struct.TValue, ptr %23, i32 0, i32 0
  %25 = load ptr, ptr %24, align 8, !tbaa !22
  %26 = getelementptr inbounds nuw %struct.TString, ptr %25, i32 0, i32 4
  %27 = load i8, ptr %26, align 1, !tbaa !96
  %28 = sext i8 %27 to i32
  %29 = icmp sge i32 %28, 0
  br i1 %29, label %30, label %35

30:                                               ; preds = %22
  %31 = load ptr, ptr %8, align 8, !tbaa !64
  %32 = getelementptr inbounds nuw %struct.TValue, ptr %31, i32 0, i32 0
  %33 = load ptr, ptr %32, align 8, !tbaa !22
  %34 = getelementptr inbounds nuw %struct.TString, ptr %33, i32 0, i32 7
  br label %41

35:                                               ; preds = %22
  %36 = load ptr, ptr %8, align 8, !tbaa !64
  %37 = getelementptr inbounds nuw %struct.TValue, ptr %36, i32 0, i32 0
  %38 = load ptr, ptr %37, align 8, !tbaa !22
  %39 = getelementptr inbounds nuw %struct.TString, ptr %38, i32 0, i32 7
  %40 = load ptr, ptr %39, align 8, !tbaa !99
  br label %41

41:                                               ; preds = %35, %30
  %42 = phi ptr [ %34, %30 ], [ %40, %35 ]
  %43 = load ptr, ptr %7, align 8, !tbaa !86
  store ptr %42, ptr %43, align 8, !tbaa !58
  store ptr @.str.23, ptr %4, align 8
  store i32 1, ptr %9, align 4
  br label %46

44:                                               ; preds = %3
  %45 = load ptr, ptr %7, align 8, !tbaa !86
  store ptr @.str.18, ptr %45, align 8, !tbaa !58
  store ptr null, ptr %4, align 8
  store i32 1, ptr %9, align 4
  br label %46

46:                                               ; preds = %44, %41
  call void @llvm.lifetime.end.p0(i64 8, ptr %8) #8
  %47 = load ptr, ptr %4, align 8
  ret ptr %47
}

; Function Attrs: nounwind uwtable
define internal ptr @getobjname(ptr noundef %0, i32 noundef %1, i32 noundef %2, ptr noundef %3) #0 {
  %5 = alloca ptr, align 8
  %6 = alloca ptr, align 8
  %7 = alloca i32, align 4
  %8 = alloca i32, align 4
  %9 = alloca ptr, align 8
  %10 = alloca ptr, align 8
  %11 = alloca i32, align 4
  %12 = alloca i32, align 4
  %13 = alloca i32, align 4
  %14 = alloca i32, align 4
  %15 = alloca i32, align 4
  %16 = alloca i32, align 4
  %17 = alloca i32, align 4
  store ptr %0, ptr %6, align 8, !tbaa !4
  store i32 %1, ptr %7, align 4, !tbaa !9
  store i32 %2, ptr %8, align 4, !tbaa !9
  store ptr %3, ptr %9, align 8, !tbaa !86
  call void @llvm.lifetime.start.p0(i64 8, ptr %10) #8
  %18 = load ptr, ptr %6, align 8, !tbaa !4
  %19 = load i32, ptr %8, align 4, !tbaa !9
  %20 = load ptr, ptr %9, align 8, !tbaa !86
  %21 = call ptr @basicgetobjname(ptr noundef %18, ptr noundef %7, i32 noundef %19, ptr noundef %20)
  store ptr %21, ptr %10, align 8, !tbaa !58
  %22 = load ptr, ptr %10, align 8, !tbaa !58
  %23 = icmp ne ptr %22, null
  br i1 %23, label %24, label %26

24:                                               ; preds = %4
  %25 = load ptr, ptr %10, align 8, !tbaa !58
  store ptr %25, ptr %5, align 8
  store i32 1, ptr %11, align 4
  br label %94

26:                                               ; preds = %4
  %27 = load i32, ptr %7, align 4, !tbaa !9
  %28 = icmp ne i32 %27, -1
  br i1 %28, label %29, label %92

29:                                               ; preds = %26
  call void @llvm.lifetime.start.p0(i64 4, ptr %12) #8
  %30 = load ptr, ptr %6, align 8, !tbaa !4
  %31 = getelementptr inbounds nuw %struct.Proto, ptr %30, i32 0, i32 16
  %32 = load ptr, ptr %31, align 8, !tbaa !63
  %33 = load i32, ptr %7, align 4, !tbaa !9
  %34 = sext i32 %33 to i64
  %35 = getelementptr inbounds i32, ptr %32, i64 %34
  %36 = load i32, ptr %35, align 4, !tbaa !9
  store i32 %36, ptr %12, align 4, !tbaa !9
  call void @llvm.lifetime.start.p0(i64 4, ptr %13) #8
  %37 = load i32, ptr %12, align 4, !tbaa !9
  %38 = lshr i32 %37, 0
  %39 = and i32 %38, 127
  store i32 %39, ptr %13, align 4, !tbaa !9
  %40 = load i32, ptr %13, align 4, !tbaa !9
  switch i32 %40, label %87 [
    i32 11, label %41
    i32 12, label %53
    i32 13, label %65
    i32 14, label %67
    i32 20, label %79
  ]

41:                                               ; preds = %29
  call void @llvm.lifetime.start.p0(i64 4, ptr %14) #8
  %42 = load i32, ptr %12, align 4, !tbaa !9
  %43 = lshr i32 %42, 24
  %44 = and i32 %43, 255
  store i32 %44, ptr %14, align 4, !tbaa !9
  %45 = load ptr, ptr %6, align 8, !tbaa !4
  %46 = load i32, ptr %14, align 4, !tbaa !9
  %47 = load ptr, ptr %9, align 8, !tbaa !86
  %48 = call ptr @kname(ptr noundef %45, i32 noundef %46, ptr noundef %47)
  %49 = load ptr, ptr %6, align 8, !tbaa !4
  %50 = load i32, ptr %7, align 4, !tbaa !9
  %51 = load i32, ptr %12, align 4, !tbaa !9
  %52 = call ptr @isEnv(ptr noundef %49, i32 noundef %50, i32 noundef %51, i32 noundef 1)
  store ptr %52, ptr %5, align 8
  store i32 1, ptr %11, align 4
  call void @llvm.lifetime.end.p0(i64 4, ptr %14) #8
  br label %89

53:                                               ; preds = %29
  call void @llvm.lifetime.start.p0(i64 4, ptr %15) #8
  %54 = load i32, ptr %12, align 4, !tbaa !9
  %55 = lshr i32 %54, 24
  %56 = and i32 %55, 255
  store i32 %56, ptr %15, align 4, !tbaa !9
  %57 = load ptr, ptr %6, align 8, !tbaa !4
  %58 = load i32, ptr %7, align 4, !tbaa !9
  %59 = load i32, ptr %15, align 4, !tbaa !9
  %60 = load ptr, ptr %9, align 8, !tbaa !86
  call void @rname(ptr noundef %57, i32 noundef %58, i32 noundef %59, ptr noundef %60)
  %61 = load ptr, ptr %6, align 8, !tbaa !4
  %62 = load i32, ptr %7, align 4, !tbaa !9
  %63 = load i32, ptr %12, align 4, !tbaa !9
  %64 = call ptr @isEnv(ptr noundef %61, i32 noundef %62, i32 noundef %63, i32 noundef 0)
  store ptr %64, ptr %5, align 8
  store i32 1, ptr %11, align 4
  call void @llvm.lifetime.end.p0(i64 4, ptr %15) #8
  br label %89

65:                                               ; preds = %29
  %66 = load ptr, ptr %9, align 8, !tbaa !86
  store ptr @.str.19, ptr %66, align 8, !tbaa !58
  store ptr @.str.20, ptr %5, align 8
  store i32 1, ptr %11, align 4
  br label %89

67:                                               ; preds = %29
  call void @llvm.lifetime.start.p0(i64 4, ptr %16) #8
  %68 = load i32, ptr %12, align 4, !tbaa !9
  %69 = lshr i32 %68, 24
  %70 = and i32 %69, 255
  store i32 %70, ptr %16, align 4, !tbaa !9
  %71 = load ptr, ptr %6, align 8, !tbaa !4
  %72 = load i32, ptr %16, align 4, !tbaa !9
  %73 = load ptr, ptr %9, align 8, !tbaa !86
  %74 = call ptr @kname(ptr noundef %71, i32 noundef %72, ptr noundef %73)
  %75 = load ptr, ptr %6, align 8, !tbaa !4
  %76 = load i32, ptr %7, align 4, !tbaa !9
  %77 = load i32, ptr %12, align 4, !tbaa !9
  %78 = call ptr @isEnv(ptr noundef %75, i32 noundef %76, i32 noundef %77, i32 noundef 0)
  store ptr %78, ptr %5, align 8
  store i32 1, ptr %11, align 4
  call void @llvm.lifetime.end.p0(i64 4, ptr %16) #8
  br label %89

79:                                               ; preds = %29
  call void @llvm.lifetime.start.p0(i64 4, ptr %17) #8
  %80 = load i32, ptr %12, align 4, !tbaa !9
  %81 = lshr i32 %80, 24
  %82 = and i32 %81, 255
  store i32 %82, ptr %17, align 4, !tbaa !9
  %83 = load ptr, ptr %6, align 8, !tbaa !4
  %84 = load i32, ptr %17, align 4, !tbaa !9
  %85 = load ptr, ptr %9, align 8, !tbaa !86
  %86 = call ptr @kname(ptr noundef %83, i32 noundef %84, ptr noundef %85)
  store ptr @.str.21, ptr %5, align 8
  store i32 1, ptr %11, align 4
  call void @llvm.lifetime.end.p0(i64 4, ptr %17) #8
  br label %89

87:                                               ; preds = %29
  br label %88

88:                                               ; preds = %87
  store i32 0, ptr %11, align 4
  br label %89

89:                                               ; preds = %88, %79, %67, %65, %53, %41
  call void @llvm.lifetime.end.p0(i64 4, ptr %13) #8
  call void @llvm.lifetime.end.p0(i64 4, ptr %12) #8
  %90 = load i32, ptr %11, align 4
  switch i32 %90, label %94 [
    i32 0, label %91
  ]

91:                                               ; preds = %89
  br label %92

92:                                               ; preds = %91, %26
  br label %93

93:                                               ; preds = %92
  store ptr null, ptr %5, align 8
  store i32 1, ptr %11, align 4
  br label %94

94:                                               ; preds = %93, %89, %24
  call void @llvm.lifetime.end.p0(i64 8, ptr %10) #8
  %95 = load ptr, ptr %5, align 8
  ret ptr %95
}