; Function Attrs: nounwind uwtable
define internal fastcc ptr @getobjname(ptr noundef %0, i32 noundef range(i32 -2147483648, 2147483647) %1, i32 noundef range(i32 0, -2147483648) %2, ptr noundef writeonly captures(none) initializes((0, 8)) %3) unnamed_addr #6 {
  %5 = alloca i32, align 4
  %6 = alloca ptr, align 8
  %7 = alloca i32, align 4
  %8 = alloca ptr, align 8
  %9 = alloca i32, align 4
  %10 = alloca i32, align 4
  store i32 %1, ptr %10, align 4, !tbaa !23
  %11 = call fastcc ptr @basicgetobjname(ptr noundef %0, ptr noundef %10, i32 noundef %2, ptr noundef %3)
  %.not = icmp eq ptr %11, null
  br i1 %.not, label %12, label %isEnv.exit

12:                                               ; preds = %4
  %13 = load i32, ptr %10, align 4, !tbaa !23
  %.not35 = icmp eq i32 %13, -1
  br i1 %.not35, label %isEnv.exit, label %14

14:                                               ; preds = %12
  %15 = getelementptr inbounds nuw i8, ptr %0, i64 64
  %16 = load ptr, ptr %15, align 8, !tbaa !49
  %17 = sext i32 %13 to i64
  %18 = getelementptr inbounds i32, ptr %16, i64 %17
  %19 = load i32, ptr %18, align 4, !tbaa !23
  %20 = and i32 %19, 127
  switch i32 %20, label %isEnv.exit [
    i32 11, label %21
    i32 12, label %55
    i32 13, label %70
    i32 14, label %71
    i32 20, label %96
  ]

21:                                               ; preds = %14
  %22 = lshr i32 %19, 24
  %23 = getelementptr i8, ptr %0, i64 56
  %.val = load ptr, ptr %23, align 8, !tbaa !97
  %24 = zext nneg i32 %22 to i64
  %25 = getelementptr inbounds nuw %struct.TValue, ptr %.val, i64 %24
  %26 = getelementptr inbounds nuw i8, ptr %25, i64 8
  %27 = load i8, ptr %26, align 8, !tbaa !53
  %28 = and i8 %27, 15
  %29 = icmp eq i8 %28, 4
  br i1 %29, label %30, label %kname.exit

30:                                               ; preds = %21
  %31 = load ptr, ptr %25, align 8, !tbaa !24
  %32 = getelementptr inbounds nuw i8, ptr %31, i64 11
  %33 = load i8, ptr %32, align 1, !tbaa !60
  %34 = icmp sgt i8 %33, -1
  %35 = getelementptr inbounds nuw i8, ptr %31, i64 24
  br i1 %34, label %kname.exit, label %36

36:                                               ; preds = %30
  %37 = load ptr, ptr %35, align 8, !tbaa !62
  br label %kname.exit

kname.exit:                                       ; preds = %21, %30, %36
  %storemerge.i = phi ptr [ %37, %36 ], [ @.str.18, %21 ], [ %35, %30 ]
  store ptr %storemerge.i, ptr %3, align 8, !tbaa !85
  %38 = lshr i32 %19, 16
  %39 = and i32 %38, 255
  %40 = getelementptr i8, ptr %0, i64 80
  %.val.i = load ptr, ptr %40, align 8, !tbaa !82
  %41 = zext nneg i32 %39 to i64
  %42 = getelementptr inbounds nuw %struct.Upvaldesc, ptr %.val.i, i64 %41
  %43 = load ptr, ptr %42, align 8, !tbaa !83
  %44 = icmp eq ptr %43, null
  br i1 %44, label %upvalname.exit.i.thread, label %45

45:                                               ; preds = %kname.exit
  %46 = getelementptr inbounds nuw i8, ptr %43, i64 11
  %47 = load i8, ptr %46, align 1, !tbaa !60
  %48 = icmp sgt i8 %47, -1
  %49 = getelementptr inbounds nuw i8, ptr %43, i64 24
  br i1 %48, label %upvalname.exit.i.thread, label %upvalname.exit.i

upvalname.exit.i:                                 ; preds = %45
  %50 = load ptr, ptr %49, align 8, !tbaa !62
  %.not5.i = icmp eq ptr %50, null
  br i1 %.not5.i, label %isEnv.exit, label %upvalname.exit.i.thread

upvalname.exit.i.thread:                          ; preds = %45, %kname.exit, %upvalname.exit.i
  %51 = phi ptr [ %50, %upvalname.exit.i ], [ %49, %45 ], [ @.str.18, %kname.exit ]
  %52 = tail call i32 @strcmp(ptr noundef nonnull dereferenceable(1) %51, ptr noundef nonnull dereferenceable(5) @.str.24) #14
  %53 = icmp eq i32 %52, 0
  %54 = select i1 %53, ptr @.str.25, ptr @.str.20
  br label %isEnv.exit

55:                                               ; preds = %14
  %56 = lshr i32 %19, 24
  call void @llvm.lifetime.start.p0(i64 4, ptr nonnull %9)
  store i32 %13, ptr %9, align 4, !tbaa !23
  %57 = call fastcc ptr @basicgetobjname(ptr noundef nonnull %0, ptr noundef %9, i32 noundef range(i32 0, 256) %56, ptr noundef %3)
  %.not.i = icmp eq ptr %57, null
  br i1 %.not.i, label %61, label %58

58:                                               ; preds = %55
  %59 = load i8, ptr %57, align 1, !tbaa !24
  %60 = icmp eq i8 %59, 99
  br i1 %60, label %rname.exit, label %61

61:                                               ; preds = %58, %55
  store ptr @.str.18, ptr %3, align 8, !tbaa !85
  br label %rname.exit

rname.exit:                                       ; preds = %58, %61
  call void @llvm.lifetime.end.p0(i64 4, ptr nonnull %9)
  call void @llvm.lifetime.start.p0(i64 4, ptr nonnull %7)
  store i32 %13, ptr %7, align 4, !tbaa !23
  %62 = lshr i32 %19, 16
  %63 = and i32 %62, 255
  call void @llvm.lifetime.start.p0(i64 8, ptr nonnull %8) #13
  %64 = call fastcc ptr @basicgetobjname(ptr noundef nonnull %0, ptr noundef %7, i32 noundef %63, ptr noundef nonnull %8)
  %.pr.i = load ptr, ptr %8, align 8, !tbaa !85
  %.not5.i39 = icmp eq ptr %.pr.i, null
  br i1 %.not5.i39, label %isEnv.exit40, label %65

65:                                               ; preds = %rname.exit
  %66 = tail call i32 @strcmp(ptr noundef nonnull dereferenceable(1) %.pr.i, ptr noundef nonnull dereferenceable(5) @.str.24) #14
  %67 = icmp eq i32 %66, 0
  %68 = select i1 %67, ptr @.str.25, ptr @.str.20
  br label %isEnv.exit40

isEnv.exit40:                                     ; preds = %rname.exit, %65
  %69 = phi ptr [ @.str.20, %rname.exit ], [ %68, %65 ]
  call void @llvm.lifetime.end.p0(i64 8, ptr nonnull %8) #13
  call void @llvm.lifetime.end.p0(i64 4, ptr nonnull %7)
  br label %isEnv.exit

70:                                               ; preds = %14
  store ptr @.str.19, ptr %3, align 8, !tbaa !85
  br label %isEnv.exit

71:                                               ; preds = %14
  %72 = lshr i32 %19, 24
  %73 = getelementptr i8, ptr %0, i64 56
  %.val36 = load ptr, ptr %73, align 8, !tbaa !97
  %74 = zext nneg i32 %72 to i64
  %75 = getelementptr inbounds nuw %struct.TValue, ptr %.val36, i64 %74
  %76 = getelementptr inbounds nuw i8, ptr %75, i64 8
  %77 = load i8, ptr %76, align 8, !tbaa !53
  %78 = and i8 %77, 15
  %79 = icmp eq i8 %78, 4
  br i1 %79, label %80, label %kname.exit43

80:                                               ; preds = %71
  %81 = load ptr, ptr %75, align 8, !tbaa !24
  %82 = getelementptr inbounds nuw i8, ptr %81, i64 11
  %83 = load i8, ptr %82, align 1, !tbaa !60
  %84 = icmp sgt i8 %83, -1
  %85 = getelementptr inbounds nuw i8, ptr %81, i64 24
  br i1 %84, label %kname.exit43, label %86

86:                                               ; preds = %80
  %87 = load ptr, ptr %85, align 8, !tbaa !62
  br label %kname.exit43

kname.exit43:                                     ; preds = %71, %80, %86
  %storemerge.i41 = phi ptr [ %87, %86 ], [ @.str.18, %71 ], [ %85, %80 ]
  store ptr %storemerge.i41, ptr %3, align 8, !tbaa !85
  call void @llvm.lifetime.start.p0(i64 4, ptr nonnull %5)
  store i32 %13, ptr %5, align 4, !tbaa !23
  %88 = lshr i32 %19, 16
  %89 = and i32 %88, 255
  call void @llvm.lifetime.start.p0(i64 8, ptr nonnull %6) #13
  %90 = call fastcc ptr @basicgetobjname(ptr noundef nonnull %0, ptr noundef %5, i32 noundef %89, ptr noundef nonnull %6)
  %.pr.i44 = load ptr, ptr %6, align 8, !tbaa !85
  %.not5.i46 = icmp eq ptr %.pr.i44, null
  br i1 %.not5.i46, label %isEnv.exit47, label %91

91:                                               ; preds = %kname.exit43
  %92 = tail call i32 @strcmp(ptr noundef nonnull dereferenceable(1) %.pr.i44, ptr noundef nonnull dereferenceable(5) @.str.24) #14
  %93 = icmp eq i32 %92, 0
  %94 = select i1 %93, ptr @.str.25, ptr @.str.20
  br label %isEnv.exit47

isEnv.exit47:                                     ; preds = %kname.exit43, %91
  %95 = phi ptr [ @.str.20, %kname.exit43 ], [ %94, %91 ]
  call void @llvm.lifetime.end.p0(i64 8, ptr nonnull %6) #13
  call void @llvm.lifetime.end.p0(i64 4, ptr nonnull %5)
  br label %isEnv.exit

96:                                               ; preds = %14
  %97 = lshr i32 %19, 24
  %98 = getelementptr i8, ptr %0, i64 56
  %.val37 = load ptr, ptr %98, align 8, !tbaa !97
  %99 = zext nneg i32 %97 to i64
  %100 = getelementptr inbounds nuw %struct.TValue, ptr %.val37, i64 %99
  %101 = getelementptr inbounds nuw i8, ptr %100, i64 8
  %102 = load i8, ptr %101, align 8, !tbaa !53
  %103 = and i8 %102, 15
  %104 = icmp eq i8 %103, 4
  br i1 %104, label %105, label %kname.exit50

105:                                              ; preds = %96
  %106 = load ptr, ptr %100, align 8, !tbaa !24
  %107 = getelementptr inbounds nuw i8, ptr %106, i64 11
  %108 = load i8, ptr %107, align 1, !tbaa !60
  %109 = icmp sgt i8 %108, -1
  %110 = getelementptr inbounds nuw i8, ptr %106, i64 24
  br i1 %109, label %kname.exit50, label %111

111:                                              ; preds = %105
  %112 = load ptr, ptr %110, align 8, !tbaa !62
  br label %kname.exit50

kname.exit50:                                     ; preds = %96, %105, %111
  %storemerge.i48 = phi ptr [ %112, %111 ], [ @.str.18, %96 ], [ %110, %105 ]
  store ptr %storemerge.i48, ptr %3, align 8, !tbaa !85
  br label %isEnv.exit

isEnv.exit:                                       ; preds = %upvalname.exit.i.thread, %upvalname.exit.i, %isEnv.exit40, %70, %isEnv.exit47, %kname.exit50, %12, %14, %4
  %.0 = phi ptr [ %11, %4 ], [ null, %14 ], [ null, %12 ], [ %54, %upvalname.exit.i.thread ], [ @.str.20, %upvalname.exit.i ], [ %69, %isEnv.exit40 ], [ @.str.20, %70 ], [ %95, %isEnv.exit47 ], [ @.str.21, %kname.exit50 ]
  ret ptr %.0
}